; Function Attrs: nounwind uwtable
define ptr @l_Lean_MVarId_isAssigned___at___private_Lean_Meta_Tactic_Grind_EMatch_0__Lean_Meta_Grind_EMatch_instantiateTheorem___spec__3___boxed(ptr noundef %0, ptr noundef %1, ptr noundef %2, ptr noundef %3, ptr noundef %4, ptr noundef %5, ptr noundef %6, ptr noundef %7, ptr noundef %8, ptr noundef %9, ptr noundef %10, ptr noundef %11) local_unnamed_addr #0 {
  %13 = tail call ptr @l_Lean_MVarId_isAssigned___at___private_Lean_Meta_Tactic_Grind_EMatch_0__Lean_Meta_Grind_EMatch_instantiateTheorem___spec__3(ptr noundef %0, ptr poison, ptr poison, ptr poison, ptr poison, ptr poison, ptr poison, ptr poison, ptr noundef %8, ptr poison, ptr poison, ptr noundef %11)
  %14 = ptrtoint ptr %10 to i64
  %15 = and i64 %14, 1
  %.not = icmp eq i64 %15, 0
  br i1 %.not, label %16, label %lean_dec.exit33

16:                                               ; preds = %12
  %17 = load i32, ptr %10, align 4, !tbaa !8
  %18 = icmp sgt i32 %17, 1
  br i1 %18, label %19, label %21, !prof !11

19:                                               ; preds = %16
  %20 = add nsw i32 %17, -1
  store i32 %20, ptr %10, align 4, !tbaa !8
  br label %lean_dec.exit33

21:                                               ; preds = %16
  %.not.i = icmp eq i32 %17, 0
  br i1 %.not.i, label %lean_dec.exit33, label %22

22:                                               ; preds = %21
  tail call void @lean_dec_ref_cold(ptr noundef nonnull %10) #5
  br label %lean_dec.exit33

lean_dec.exit33:                                  ; preds = %22, %21, %19, %12
  %23 = ptrtoint ptr %9 to i64
  %24 = and i64 %23, 1
  %.not54 = icmp eq i64 %24, 0
  br i1 %.not54, label %25, label %lean_dec.exit32

25:                                               ; preds = %lean_dec.exit33
  %26 = load i32, ptr %9, align 4, !tbaa !8
  %27 = icmp sgt i32 %26, 1
  br i1 %27, label %28, label %30, !prof !11

28:                                               ; preds = %25
  %29 = add nsw i32 %26, -1
  store i32 %29, ptr %9, align 4, !tbaa !8
  br label %lean_dec.exit32

30:                                               ; preds = %25
  %.not.i34 = icmp eq i32 %26, 0
  br i1 %.not.i34, label %lean_dec.exit32, label %31

31:                                               ; preds = %30
  tail call void @lean_dec_ref_cold(ptr noundef nonnull %9) #5
  br label %lean_dec.exit32

lean_dec.exit32:                                  ; preds = %31, %30, %28, %lean_dec.exit33
  %32 = ptrtoint ptr %8 to i64
  %33 = and i64 %32, 1
  %.not55 = icmp eq i64 %33, 0
  br i1 %.not55, label %34, label %lean_dec.exit31

34:                                               ; preds = %lean_dec.exit32
  %35 = load i32, ptr %8, align 4, !tbaa !8
  %36 = icmp sgt i32 %35, 1
  br i1 %36, label %37, label %39, !prof !11

37:                                               ; preds = %34
  %38 = add nsw i32 %35, -1
  store i32 %38, ptr %8, align 4, !tbaa !8
  br label %lean_dec.exit31

39:                                               ; preds = %34
  %.not.i36 = icmp eq i32 %35, 0
  br i1 %.not.i36, label %lean_dec.exit31, label %40

40:                                               ; preds = %39
  tail call void @lean_dec_ref_cold(ptr noundef nonnull %8) #5
  br label %lean_dec.exit31

lean_dec.exit31:                                  ; preds = %40, %39, %37, %lean_dec.exit32
  %41 = ptrtoint ptr %7 to i64
  %42 = and i64 %41, 1
  %.not56 = icmp eq i64 %42, 0
  br i1 %.not56, label %43, label %lean_dec.exit30

43:                                               ; preds = %lean_dec.exit31
  %44 = load i32, ptr %7, align 4, !tbaa !8
  %45 = icmp sgt i32 %44, 1
  br i1 %45, label %46, label %48, !prof !11

46:                                               ; preds = %43
  %47 = add nsw i32 %44, -1
  store i32 %47, ptr %7, align 4, !tbaa !8
  br label %lean_dec.exit30

48:                                               ; preds = %43
  %.not.i38 = icmp eq i32 %44, 0
  br i1 %.not.i38, label %lean_dec.exit30, label %49

49:                                               ; preds = %48
  tail call void @lean_dec_ref_cold(ptr noundef nonnull %7) #5
  br label %lean_dec.exit30

lean_dec.exit30:                                  ; preds = %49, %48, %46, %lean_dec.exit31
  %50 = ptrtoint ptr %6 to i64
  %51 = and i64 %50, 1
  %.not57 = icmp eq i64 %51, 0
  br i1 %.not57, label %52, label %lean_dec.exit29

52:                                               ; preds = %lean_dec.exit30
  %53 = load i32, ptr %6, align 4, !tbaa !8
  %54 = icmp sgt i32 %53, 1
  br i1 %54, label %55, label %57, !prof !11

55:                                               ; preds = %52
  %56 = add nsw i32 %53, -1
  store i32 %56, ptr %6, align 4, !tbaa !8
  br label %lean_dec.exit29

57:                                               ; preds = %52
  %.not.i40 = icmp eq i32 %53, 0
  br i1 %.not.i40, label %lean_dec.exit29, label %58

58:                                               ; preds = %57
  tail call void @lean_dec_ref_cold(ptr noundef nonnull %6) #5
  br label %lean_dec.exit29

lean_dec.exit29:                                  ; preds = %58, %57, %55, %lean_dec.exit30
  %59 = ptrtoint ptr %5 to i64
  %60 = and i64 %59, 1
  %.not58 = icmp eq i64 %60, 0
  br i1 %.not58, label %61, label %lean_dec.exit28

61:                                               ; preds = %lean_dec.exit29
  %62 = load i32, ptr %5, align 4, !tbaa !8
  %63 = icmp sgt i32 %62, 1
  br i1 %63, label %64, label %66, !prof !11

64:                                               ; preds = %61
  %65 = add nsw i32 %62, -1
  store i32 %65, ptr %5, align 4, !tbaa !8
  br label %lean_dec.exit28

66:                                               ; preds = %61
  %.not.i42 = icmp eq i32 %62, 0
  br i1 %.not.i42, label %lean_dec.exit28, label %67

67:                                               ; preds = %66
  tail call void @lean_dec_ref_cold(ptr noundef nonnull %5) #5
  br label %lean_dec.exit28

lean_dec.exit28:                                  ; preds = %67, %66, %64, %lean_dec.exit29
  %68 = ptrtoint ptr %4 to i64
  %69 = and i64 %68, 1
  %.not59 = icmp eq i64 %69, 0
  br i1 %.not59, label %70, label %lean_dec.exit27

70:                                               ; preds = %lean_dec.exit28
  %71 = load i32, ptr %4, align 4, !tbaa !8
  %72 = icmp sgt i32 %71, 1
  br i1 %72, label %73, label %75, !prof !11

73:                                               ; preds = %70
  %74 = add nsw i32 %71, -1
  store i32 %74, ptr %4, align 4, !tbaa !8
  br label %lean_dec.exit27

75:                                               ; preds = %70
  %.not.i44 = icmp eq i32 %71, 0
  br i1 %.not.i44, label %lean_dec.exit27, label %76

76:                                               ; preds = %75
  tail call void @lean_dec_ref_cold(ptr noundef nonnull %4) #5
  br label %lean_dec.exit27

lean_dec.exit27:                                  ; preds = %76, %75, %73, %lean_dec.exit28
  %77 = ptrtoint ptr %3 to i64
  %78 = and i64 %77, 1
  %.not60 = icmp eq i64 %78, 0
  br i1 %.not60, label %79, label %lean_dec.exit26

79:                                               ; preds = %lean_dec.exit27
  %80 = load i32, ptr %3, align 4, !tbaa !8
  %81 = icmp sgt i32 %80, 1
  br i1 %81, label %82, label %84, !prof !11

82:                                               ; preds = %79
  %83 = add nsw i32 %80, -1
  store i32 %83, ptr %3, align 4, !tbaa !8
  br label %lean_dec.exit26

84:                                               ; preds = %79
  %.not.i46 = icmp eq i32 %80, 0
  br i1 %.not.i46, label %lean_dec.exit26, label %85

85:                                               ; preds = %84
  tail call void @lean_dec_ref_cold(ptr noundef nonnull %3) #5
  br label %lean_dec.exit26

lean_dec.exit26:                                  ; preds = %85, %84, %82, %lean_dec.exit27
  %86 = ptrtoint ptr %2 to i64
  %87 = and i64 %86, 1
  %.not61 = icmp eq i64 %87, 0
  br i1 %.not61, label %88, label %lean_dec.exit25

88:                                               ; preds = %lean_dec.exit26
  %89 = load i32, ptr %2, align 4, !tbaa !8
  %90 = icmp sgt i32 %89, 1
  br i1 %90, label %91, label %93, !prof !11

91:                                               ; preds = %88
  %92 = add nsw i32 %89, -1
  store i32 %92, ptr %2, align 4, !tbaa !8
  br label %lean_dec.exit25

93:                                               ; preds = %88
  %.not.i48 = icmp eq i32 %89, 0
  br i1 %.not.i48, label %lean_dec.exit25, label %94

94:                                               ; preds = %93
  tail call void @lean_dec_ref_cold(ptr noundef nonnull %2) #5
  br label %lean_dec.exit25

lean_dec.exit25:                                  ; preds = %94, %93, %91, %lean_dec.exit26
  %95 = ptrtoint ptr %1 to i64
  %96 = and i64 %95, 1
  %.not62 = icmp eq i64 %96, 0
  br i1 %.not62, label %97, label %lean_dec.exit24

97:                                               ; preds = %lean_dec.exit25
  %98 = load i32, ptr %1, align 4, !tbaa !8
  %99 = icmp sgt i32 %98, 1
  br i1 %99, label %100, label %102, !prof !11

100:                                              ; preds = %97
  %101 = add nsw i32 %98, -1
  store i32 %101, ptr %1, align 4, !tbaa !8
  br label %lean_dec.exit24

102:                                              ; preds = %97
  %.not.i50 = icmp eq i32 %98, 0
  br i1 %.not.i50, label %lean_dec.exit24, label %103

103:                                              ; preds = %102
  tail call void @lean_dec_ref_cold(ptr noundef nonnull %1) #5
  br label %lean_dec.exit24

lean_dec.exit24:                                  ; preds = %103, %102, %100, %lean_dec.exit25
  %104 = ptrtoint ptr %0 to i64
  %105 = and i64 %104, 1
  %.not63 = icmp eq i64 %105, 0
  br i1 %.not63, label %106, label %lean_dec.exit

106:                                              ; preds = %lean_dec.exit24
  %107 = load i32, ptr %0, align 4, !tbaa !8
  %108 = icmp sgt i32 %107, 1
  br i1 %108, label %109, label %111, !prof !11

109:                                              ; preds = %106
  %110 = add nsw i32 %107, -1
  store i32 %110, ptr %0, align 4, !tbaa !8
  br label %lean_dec.exit

111:                                              ; preds = %106
  %.not.i52 = icmp eq i32 %107, 0
  br i1 %.not.i52, label %lean_dec.exit, label %112

112:                                              ; preds = %111
  tail call void @lean_dec_ref_cold(ptr noundef nonnull %0) #5
  br label %lean_dec.exit

lean_dec.exit:                                    ; preds = %112, %111, %109, %lean_dec.exit24
  ret ptr %13
}